target datalayout = "e-m:e-p270:32:32-p271:32:32-p272:64:64-i64:64-i128:128-f80:128-n8:16:32:64-S128"
target triple = "x86_64-pc-linux-gnu"

%struct.XML_Memory_Handling_Suite = type { ptr, ptr, ptr }
%struct.XML_ParserStruct = type { ptr, ptr, ptr, %struct.XML_Memory_Handling_Suite, ptr, ptr, ptr, i64, ptr, i64, i8, i32, ptr, ptr, ptr, ptr, ptr, ptr, ptr, ptr, ptr, ptr, ptr, ptr, ptr, ptr, ptr, ptr, ptr, ptr, ptr, ptr, ptr, ptr, ptr, ptr, ptr, ptr, %struct.INIT_ENCODING, ptr, ptr, i8, i8, ptr, ptr, ptr, ptr, %struct.prolog_state, ptr, i32, ptr, ptr, ptr, ptr, ptr, i8, i32, ptr, ptr, ptr, ptr, ptr, ptr, ptr, ptr, ptr, i8, i8, ptr, ptr, ptr, ptr, ptr, ptr, i32, i32, i32, ptr, ptr, i64, i8, %struct.position, %struct.STRING_POOL, %struct.STRING_POOL, ptr, i32, i8, ptr, %struct.XML_ParsingStatus, i8, i8, i32, i64, %struct.accounting, %struct.entity_stats }
%struct.INIT_ENCODING = type { %struct.encoding, ptr }
%struct.encoding = type { [4 x ptr], [2 x ptr], ptr, ptr, ptr, ptr, ptr, ptr, ptr, ptr, ptr, ptr, i32, i8, i8 }
%struct.prolog_state = type { ptr, i32, i32, i32, i32, i32 }
%struct.position = type { i64, i64 }
%struct.STRING_POOL = type { ptr, ptr, ptr, ptr, ptr, ptr }
%struct.XML_ParsingStatus = type { i32, i8 }
%struct.accounting = type { i64, i64, i64, float, i64 }
%struct.entity_stats = type { i32, i32, i32, i64 }

; Function Attrs: nounwind uwtable
define internal i32 @prologProcessor(ptr noundef %0, ptr noundef %1, ptr noundef %2, ptr noundef %3) #0 {
  %5 = alloca ptr, align 8
  %6 = alloca ptr, align 8
  %7 = alloca ptr, align 8
  %8 = alloca ptr, align 8
  %9 = alloca ptr, align 8
  %10 = alloca i32, align 4
  store ptr %0, ptr %5, align 8, !tbaa !12
  store ptr %1, ptr %6, align 8, !tbaa !3
  store ptr %2, ptr %7, align 8, !tbaa !3
  store ptr %3, ptr %8, align 8, !tbaa !203
  call void @llvm.lifetime.start.p0(i64 8, ptr %9) #11
  %11 = load ptr, ptr %6, align 8, !tbaa !3
  store ptr %11, ptr %9, align 8, !tbaa !3
  call void @llvm.lifetime.start.p0(i64 4, ptr %10) #11
  %12 = load ptr, ptr %5, align 8, !tbaa !12
  %13 = getelementptr inbounds nuw %struct.XML_ParserStruct, ptr %12, i32 0, i32 37
  %14 = load ptr, ptr %13, align 8, !tbaa !213
  %15 = getelementptr inbounds nuw %struct.encoding, ptr %14, i32 0, i32 0
  %16 = getelementptr [4 x ptr], ptr %15, i64 0, i64 0
  %17 = load ptr, ptr %16, align 8, !tbaa !8
  %18 = load ptr, ptr %5, align 8, !tbaa !12
  %19 = getelementptr inbounds nuw %struct.XML_ParserStruct, ptr %18, i32 0, i32 37
  %20 = load ptr, ptr %19, align 8, !tbaa !213
  %21 = load ptr, ptr %6, align 8, !tbaa !3
  %22 = load ptr, ptr %7, align 8, !tbaa !3
  %23 = call i32 %17(ptr noundef %20, ptr noundef %21, ptr noundef %22, ptr noundef %9)
  store i32 %23, ptr %10, align 4, !tbaa !174
  %24 = load ptr, ptr %5, align 8, !tbaa !12
  %25 = load ptr, ptr %5, align 8, !tbaa !12
  %26 = getelementptr inbounds nuw %struct.XML_ParserStruct, ptr %25, i32 0, i32 37
  %27 = load ptr, ptr %26, align 8, !tbaa !213
  %28 = load ptr, ptr %6, align 8, !tbaa !3
  %29 = load ptr, ptr %7, align 8, !tbaa !3
  %30 = load i32, ptr %10, align 4, !tbaa !174
  %31 = load ptr, ptr %9, align 8, !tbaa !3
  %32 = load ptr, ptr %8, align 8, !tbaa !203
  %33 = load ptr, ptr %5, align 8, !tbaa !12
  %34 = getelementptr inbounds nuw %struct.XML_ParserStruct, ptr %33, i32 0, i32 88
  %35 = getelementptr inbounds nuw %struct.XML_ParsingStatus, ptr %34, i32 0, i32 1
  %36 = load i8, ptr %35, align 4, !tbaa !212
  %37 = icmp ne i8 %36, 0
  %38 = xor i1 %37, true
  %39 = zext i1 %38 to i32
  %40 = trunc i32 %39 to i8
  %41 = call i32 @doProlog(ptr noundef %24, ptr noundef %27, ptr noundef %28, ptr noundef %29, i32 noundef %30, ptr noundef %31, ptr noundef %32, i8 noundef zeroext %40, i8 noundef zeroext 1, i32 noundef 0)
  call void @llvm.lifetime.end.p0(i64 4, ptr %10) #11
  call void @llvm.lifetime.end.p0(i64 8, ptr %9) #11
  ret i32 %41
}