; Function Attrs: nounwind uwtable
define internal i32 @prologProcessor(ptr noundef %0, ptr noundef %1, ptr noundef %2, ptr noundef writeonly captures(none) %3) #0 {
  %5 = alloca ptr, align 8
  call void @llvm.lifetime.start.p0(i64 8, ptr nonnull %5) #25
  store ptr %1, ptr %5, align 8, !tbaa !117
  %6 = getelementptr inbounds nuw i8, ptr %0, i64 304
  %7 = load ptr, ptr %6, align 8, !tbaa !206
  %8 = load ptr, ptr %7, align 8, !tbaa !92
  %9 = call i32 %8(ptr noundef nonnull %7, ptr noundef %1, ptr noundef %2, ptr noundef nonnull %5) #25
  %10 = load ptr, ptr %6, align 8, !tbaa !206
  %11 = load ptr, ptr %5, align 8, !tbaa !117
  %12 = getelementptr inbounds nuw i8, ptr %0, i64 924
  %13 = load i8, ptr %12, align 4, !tbaa !202
  %.not = icmp eq i8 %13, 0
  %14 = zext i1 %.not to i8
  %15 = call fastcc i32 @doProlog(ptr noundef %0, ptr noundef %10, ptr noundef %1, ptr noundef %2, i32 noundef %9, ptr noundef %11, ptr noundef %3, i8 noundef zeroext %14, i8 noundef zeroext 1, i32 noundef 0)
  call void @llvm.lifetime.end.p0(i64 8, ptr nonnull %5) #25
  ret i32 %15
}